target datalayout = "e-m:e-p270:32:32-p271:32:32-p272:64:64-i64:64-i128:128-f80:128-n8:16:32:64-S128"
target triple = "x86_64-pc-linux-gnu"

%struct.Abc_Ntk_t_ = type { i32, i32, ptr, ptr, ptr, ptr, ptr, ptr, ptr, ptr, ptr, ptr, ptr, [11 x i32], i32, i32, i32, i32, ptr, i32, ptr, ptr, i32, i32, i32, double, i32, %struct.Vec_Int_t_, ptr, ptr, ptr, ptr, ptr, float, i32, ptr, ptr, ptr, ptr, ptr, ptr, ptr, ptr, ptr, ptr, ptr, ptr, ptr, ptr, ptr, ptr, ptr, ptr, ptr, ptr, ptr }
%struct.Vec_Int_t_ = type { i32, i32, ptr }
%struct.Fraig_ParamsStruct_t_ = type { i32, i32, i32, i32, i32, i32, i32, i32, i32, i32, i32, i32, i32, i32, i64 }
%struct.Vec_Ptr_t_ = type { i32, i32, ptr }

@.str.9 = private unnamed_addr constant [44 x i8] c"There are no network currently in storage.\0A\00", align 1

; Function Attrs: nounwind uwtable
define internal void @Vec_PtrClear(ptr noundef %0) #0 {
  %2 = alloca ptr, align 8
  store ptr %0, ptr %2, align 8
  %3 = load ptr, ptr %2, align 8
  %4 = getelementptr inbounds %struct.Vec_Ptr_t_, ptr %3, i32 0, i32 1
  store i32 0, ptr %4, align 4
  ret void
}

; Function Attrs: nounwind uwtable
define internal void @Vec_PtrGrow(ptr noundef %0, i32 noundef %1) #0 {
  %3 = alloca ptr, align 8
  %4 = alloca i32, align 4
  store ptr %0, ptr %3, align 8
  store i32 %1, ptr %4, align 4
  %5 = load ptr, ptr %3, align 8
  %6 = getelementptr inbounds %struct.Vec_Ptr_t_, ptr %5, i32 0, i32 0
  %7 = load i32, ptr %6, align 8
  %8 = load i32, ptr %4, align 4
  %9 = icmp sge i32 %7, %8
  br i1 %9, label %10, label %11

10:                                               ; preds = %2
  br label %36

11:                                               ; preds = %2
  %12 = load ptr, ptr %3, align 8
  %13 = getelementptr inbounds %struct.Vec_Ptr_t_, ptr %12, i32 0, i32 2
  %14 = load ptr, ptr %13, align 8
  %15 = icmp ne ptr %14, null
  br i1 %15, label %16, label %24

16:                                               ; preds = %11
  %17 = load ptr, ptr %3, align 8
  %18 = getelementptr inbounds %struct.Vec_Ptr_t_, ptr %17, i32 0, i32 2
  %19 = load ptr, ptr %18, align 8
  %20 = load i32, ptr %4, align 4
  %21 = sext i32 %20 to i64
  %22 = mul i64 8, %21
  %23 = call ptr @realloc(ptr noundef %19, i64 noundef %22) #10
  br label %29

24:                                               ; preds = %11
  %25 = load i32, ptr %4, align 4
  %26 = sext i32 %25 to i64
  %27 = mul i64 8, %26
  %28 = call noalias ptr @malloc(i64 noundef %27) #9
  br label %29

29:                                               ; preds = %24, %16
  %30 = phi ptr [ %23, %16 ], [ %28, %24 ]
  %31 = load ptr, ptr %3, align 8
  %32 = getelementptr inbounds %struct.Vec_Ptr_t_, ptr %31, i32 0, i32 2
  store ptr %30, ptr %32, align 8
  %33 = load i32, ptr %4, align 4
  %34 = load ptr, ptr %3, align 8
  %35 = getelementptr inbounds %struct.Vec_Ptr_t_, ptr %34, i32 0, i32 0
  store i32 %33, ptr %35, align 8
  br label %36

36:                                               ; preds = %29, %10
  ret void
}

; Function Attrs: nounwind uwtable
define void @Abc_NtkFraigStoreClean() #0 {
  %1 = alloca ptr, align 8
  %2 = alloca ptr, align 8
  %3 = alloca i32, align 4
  %4 = call ptr (...) @Abc_FrameReadStore()
  store ptr %4, ptr %1, align 8
  store i32 0, ptr %3, align 4
  br label %5

5:                                                ; preds = %18, %0
  %6 = load i32, ptr %3, align 4
  %7 = load ptr, ptr %1, align 8
  %8 = call i32 @Vec_PtrSize(ptr noundef %7)
  %9 = icmp slt i32 %6, %8
  br i1 %9, label %10, label %14

10:                                               ; preds = %5
  %11 = load ptr, ptr %1, align 8
  %12 = load i32, ptr %3, align 4
  %13 = call ptr @Vec_PtrEntry(ptr noundef %11, i32 noundef %12)
  store ptr %13, ptr %2, align 8
  br label %14

14:                                               ; preds = %10, %5
  %15 = phi i1 [ false, %5 ], [ true, %10 ]
  br i1 %15, label %16, label %21

16:                                               ; preds = %14
  %17 = load ptr, ptr %2, align 8
  call void @Abc_NtkDelete(ptr noundef %17)
  br label %18

18:                                               ; preds = %16
  %19 = load i32, ptr %3, align 4
  %20 = add nsw i32 %19, 1
  store i32 %20, ptr %3, align 4
  br label %5, !llvm.loop !27

21:                                               ; preds = %14
  %22 = load ptr, ptr %1, align 8
  call void @Vec_PtrClear(ptr noundef %22)
  ret void
}

; Function Attrs: nounwind uwtable
define internal i32 @Abc_MinInt(i32 noundef %0, i32 noundef %1) #0 {
  %3 = alloca i32, align 4
  %4 = alloca i32, align 4
  store i32 %0, ptr %3, align 4
  store i32 %1, ptr %4, align 4
  %5 = load i32, ptr %3, align 4
  %6 = load i32, ptr %4, align 4
  %7 = icmp slt i32 %5, %6
  br i1 %7, label %8, label %10

8:                                                ; preds = %2
  %9 = load i32, ptr %3, align 4
  br label %12

10:                                               ; preds = %2
  %11 = load i32, ptr %4, align 4
  br label %12

12:                                               ; preds = %10, %8
  %13 = phi i32 [ %9, %8 ], [ %11, %10 ]
  ret i32 %13
}

; Function Attrs: nounwind uwtable
define internal i32 @Abc_NtkCiNum(ptr noundef %0) #0 {
  %2 = alloca ptr, align 8
  store ptr %0, ptr %2, align 8
  %3 = load ptr, ptr %2, align 8
  %4 = getelementptr inbounds %struct.Abc_Ntk_t_, ptr %3, i32 0, i32 8
  %5 = load ptr, ptr %4, align 8
  %6 = call i32 @Vec_PtrSize(ptr noundef %5)
  ret i32 %6
}

; Function Attrs: nounwind uwtable
define internal i32 @Abc_NtkNodeNum(ptr noundef %0) #0 {
  %2 = alloca ptr, align 8
  store ptr %0, ptr %2, align 8
  %3 = load ptr, ptr %2, align 8
  %4 = getelementptr inbounds %struct.Abc_Ntk_t_, ptr %3, i32 0, i32 13
  %5 = getelementptr inbounds [11 x i32], ptr %4, i64 0, i64 7
  %6 = load i32, ptr %5, align 4
  ret i32 %6
}

; Function Attrs: nounwind uwtable
define internal void @Vec_PtrWriteEntry(ptr noundef %0, i32 noundef %1, ptr noundef %2) #0 {
  %4 = alloca ptr, align 8
  %5 = alloca i32, align 4
  %6 = alloca ptr, align 8
  store ptr %0, ptr %4, align 8
  store i32 %1, ptr %5, align 4
  store ptr %2, ptr %6, align 8
  %7 = load ptr, ptr %6, align 8
  %8 = load ptr, ptr %4, align 8
  %9 = getelementptr inbounds %struct.Vec_Ptr_t_, ptr %8, i32 0, i32 2
  %10 = load ptr, ptr %9, align 8
  %11 = load i32, ptr %5, align 4
  %12 = sext i32 %11 to i64
  %13 = getelementptr inbounds ptr, ptr %10, i64 %12
  store ptr %7, ptr %13, align 8
  ret void
}

; Function Attrs: nounwind uwtable
define internal void @Vec_PtrPush(ptr noundef %0, ptr noundef %1) #0 {
  %3 = alloca ptr, align 8
  %4 = alloca ptr, align 8
  store ptr %0, ptr %3, align 8
  store ptr %1, ptr %4, align 8
  %5 = load ptr, ptr %3, align 8
  %6 = getelementptr inbounds %struct.Vec_Ptr_t_, ptr %5, i32 0, i32 1
  %7 = load i32, ptr %6, align 4
  %8 = load ptr, ptr %3, align 8
  %9 = getelementptr inbounds %struct.Vec_Ptr_t_, ptr %8, i32 0, i32 0
  %10 = load i32, ptr %9, align 8
  %11 = icmp eq i32 %7, %10
  br i1 %11, label %12, label %26

12:                                               ; preds = %2
  %13 = load ptr, ptr %3, align 8
  %14 = getelementptr inbounds %struct.Vec_Ptr_t_, ptr %13, i32 0, i32 0
  %15 = load i32, ptr %14, align 8
  %16 = icmp slt i32 %15, 16
  br i1 %16, label %17, label %19

17:                                               ; preds = %12
  %18 = load ptr, ptr %3, align 8
  call void @Vec_PtrGrow(ptr noundef %18, i32 noundef 16)
  br label %25

19:                                               ; preds = %12
  %20 = load ptr, ptr %3, align 8
  %21 = load ptr, ptr %3, align 8
  %22 = getelementptr inbounds %struct.Vec_Ptr_t_, ptr %21, i32 0, i32 0
  %23 = load i32, ptr %22, align 8
  %24 = mul nsw i32 2, %23
  call void @Vec_PtrGrow(ptr noundef %20, i32 noundef %24)
  br label %25

25:                                               ; preds = %19, %17
  br label %26

26:                                               ; preds = %25, %2
  %27 = load ptr, ptr %4, align 8
  %28 = load ptr, ptr %3, align 8
  %29 = getelementptr inbounds %struct.Vec_Ptr_t_, ptr %28, i32 0, i32 2
  %30 = load ptr, ptr %29, align 8
  %31 = load ptr, ptr %3, align 8
  %32 = getelementptr inbounds %struct.Vec_Ptr_t_, ptr %31, i32 0, i32 1
  %33 = load i32, ptr %32, align 4
  %34 = add nsw i32 %33, 1
  store i32 %34, ptr %32, align 4
  %35 = sext i32 %33 to i64
  %36 = getelementptr inbounds ptr, ptr %30, i64 %35
  store ptr %27, ptr %36, align 8
  ret void
}

; Function Attrs: nounwind uwtable
define internal ptr @Vec_PtrPop(ptr noundef %0) #0 {
  %2 = alloca ptr, align 8
  store ptr %0, ptr %2, align 8
  %3 = load ptr, ptr %2, align 8
  %4 = getelementptr inbounds %struct.Vec_Ptr_t_, ptr %3, i32 0, i32 2
  %5 = load ptr, ptr %4, align 8
  %6 = load ptr, ptr %2, align 8
  %7 = getelementptr inbounds %struct.Vec_Ptr_t_, ptr %6, i32 0, i32 1
  %8 = load i32, ptr %7, align 4
  %9 = add nsw i32 %8, -1
  store i32 %9, ptr %7, align 4
  %10 = sext i32 %9 to i64
  %11 = getelementptr inbounds ptr, ptr %5, i64 %10
  %12 = load ptr, ptr %11, align 8
  ret ptr %12
}

; Function Attrs: nounwind uwtable
define internal ptr @Vec_PtrEntry(ptr noundef %0, i32 noundef %1) #0 {
  %3 = alloca ptr, align 8
  %4 = alloca i32, align 4
  store ptr %0, ptr %3, align 8
  store i32 %1, ptr %4, align 4
  %5 = load ptr, ptr %3, align 8
  %6 = getelementptr inbounds %struct.Vec_Ptr_t_, ptr %5, i32 0, i32 2
  %7 = load ptr, ptr %6, align 8
  %8 = load i32, ptr %4, align 4
  %9 = sext i32 %8 to i64
  %10 = getelementptr inbounds ptr, ptr %7, i64 %9
  %11 = load ptr, ptr %10, align 8
  ret ptr %11
}

; Function Attrs: nounwind uwtable
define internal i32 @Vec_PtrSize(ptr noundef %0) #0 {
  %2 = alloca ptr, align 8
  store ptr %0, ptr %2, align 8
  %3 = load ptr, ptr %2, align 8
  %4 = getelementptr inbounds %struct.Vec_Ptr_t_, ptr %3, i32 0, i32 1
  %5 = load i32, ptr %4, align 4
  ret i32 %5
}

; Function Attrs: nounwind uwtable
define ptr @Abc_NtkFraigRestore(i32 noundef %0, i32 noundef %1, i32 noundef %2) #0 {
  %4 = alloca ptr, align 8
  %5 = alloca i32, align 4
  %6 = alloca i32, align 4
  %7 = alloca i32, align 4
  %8 = alloca %struct.Fraig_ParamsStruct_t_, align 8
  %9 = alloca ptr, align 8
  %10 = alloca ptr, align 8
  %11 = alloca ptr, align 8
  %12 = alloca i32, align 4
  %13 = alloca i32, align 4
  %14 = alloca i32, align 4
  store i32 %0, ptr %5, align 4
  store i32 %1, ptr %6, align 4
  store i32 %2, ptr %7, align 4
  %15 = call ptr (...) @Abc_FrameReadStore()
  store ptr %15, ptr %9, align 8
  %16 = load ptr, ptr %9, align 8
  %17 = call i32 @Vec_PtrSize(ptr noundef %16)
  %18 = icmp eq i32 %17, 0
  br i1 %18, label %19, label %21

19:                                               ; preds = %3
  %20 = call i32 (ptr, ...) @printf(ptr noundef @.str.9)
  store ptr null, ptr %4, align 8
  br label %78

21:                                               ; preds = %3
  %22 = load ptr, ptr %9, align 8
  %23 = call ptr @Vec_PtrEntry(ptr noundef %22, i32 noundef 0)
  store ptr %23, ptr %10, align 8
  %24 = load ptr, ptr %9, align 8
  %25 = call i32 @Vec_PtrSize(ptr noundef %24)
  %26 = icmp sgt i32 %25, 1
  br i1 %26, label %27, label %35

27:                                               ; preds = %21
  %28 = load ptr, ptr %9, align 8
  %29 = call ptr @Vec_PtrPop(ptr noundef %28)
  store ptr %29, ptr %10, align 8
  %30 = load ptr, ptr %9, align 8
  %31 = load ptr, ptr %9, align 8
  %32 = call ptr @Vec_PtrEntry(ptr noundef %31, i32 noundef 0)
  call void @Vec_PtrPush(ptr noundef %30, ptr noundef %32)
  %33 = load ptr, ptr %9, align 8
  %34 = load ptr, ptr %10, align 8
  call void @Vec_PtrWriteEntry(ptr noundef %33, i32 noundef 0, ptr noundef %34)
  br label %35

35:                                               ; preds = %27, %21
  store i32 32, ptr %12, align 4
  %36 = load ptr, ptr %10, align 8
  %37 = call i32 @Abc_NtkNodeNum(ptr noundef %36)
  %38 = load ptr, ptr %10, align 8
  %39 = call i32 @Abc_NtkCiNum(ptr noundef %38)
  %40 = add nsw i32 %37, %39
  %41 = sdiv i32 134217728, %40
  store i32 %41, ptr %13, align 4
  %42 = load i32, ptr %12, align 4
  %43 = load i32, ptr %13, align 4
  %44 = call i32 @Abc_MinInt(i32 noundef %42, i32 noundef %43)
  store i32 %44, ptr %14, align 4
  call void @Fraig_ParamsSetDefault(ptr noundef %8)
  %45 = load i32, ptr %5, align 4
  %46 = icmp ne i32 %45, 0
  br i1 %46, label %47, label %49

47:                                               ; preds = %35
  %48 = load i32, ptr %5, align 4
  br label %52

49:                                               ; preds = %35
  %50 = load i32, ptr %14, align 4
  %51 = mul nsw i32 %50, 32
  br label %52

52:                                               ; preds = %49, %47
  %53 = phi i32 [ %48, %47 ], [ %51, %49 ]
  %54 = getelementptr inbounds %struct.Fraig_ParamsStruct_t_, ptr %8, i32 0, i32 0
  store i32 %53, ptr %54, align 8
  %55 = load i32, ptr %6, align 4
  %56 = icmp ne i32 %55, 0
  br i1 %56, label %57, label %59

57:                                               ; preds = %52
  %58 = load i32, ptr %6, align 4
  br label %62

59:                                               ; preds = %52
  %60 = load i32, ptr %14, align 4
  %61 = mul nsw i32 %60, 32
  br label %62

62:                                               ; preds = %59, %57
  %63 = phi i32 [ %58, %57 ], [ %61, %59 ]
  %64 = getelementptr inbounds %struct.Fraig_ParamsStruct_t_, ptr %8, i32 0, i32 1
  store i32 %63, ptr %64, align 4
  %65 = load i32, ptr %7, align 4
  %66 = getelementptr inbounds %struct.Fraig_ParamsStruct_t_, ptr %8, i32 0, i32 2
  store i32 %65, ptr %66, align 8
  %67 = getelementptr inbounds %struct.Fraig_ParamsStruct_t_, ptr %8, i32 0, i32 4
  store i32 1, ptr %67, align 8
  %68 = getelementptr inbounds %struct.Fraig_ParamsStruct_t_, ptr %8, i32 0, i32 5
  store i32 1, ptr %68, align 4
  %69 = getelementptr inbounds %struct.Fraig_ParamsStruct_t_, ptr %8, i32 0, i32 6
  store i32 1, ptr %69, align 8
  %70 = getelementptr inbounds %struct.Fraig_ParamsStruct_t_, ptr %8, i32 0, i32 7
  store i32 1, ptr %70, align 4
  %71 = getelementptr inbounds %struct.Fraig_ParamsStruct_t_, ptr %8, i32 0, i32 8
  store i32 1, ptr %71, align 8
  %72 = getelementptr inbounds %struct.Fraig_ParamsStruct_t_, ptr %8, i32 0, i32 9
  store i32 0, ptr %72, align 4
  %73 = getelementptr inbounds %struct.Fraig_ParamsStruct_t_, ptr %8, i32 0, i32 12
  store i32 1, ptr %73, align 8
  %74 = getelementptr inbounds %struct.Fraig_ParamsStruct_t_, ptr %8, i32 0, i32 10
  store i32 0, ptr %74, align 8
  %75 = load ptr, ptr %9, align 8
  %76 = call ptr @Abc_NtkFraigPartitioned(ptr noundef %75, ptr noundef %8)
  store ptr %76, ptr %11, align 8
  call void @Abc_NtkFraigStoreClean()
  %77 = load ptr, ptr %11, align 8
  store ptr %77, ptr %4, align 8
  br label %78

78:                                               ; preds = %62, %19
  %79 = load ptr, ptr %4, align 8
  ret ptr %79
}