; Function Attrs: nounwind uwtable
define ptr @Abc_NtkFraigRestore(i32 noundef %0, i32 noundef %1, i32 noundef %2) local_unnamed_addr #0 {
  %4 = alloca %struct.Fraig_ParamsStruct_t_, align 8
  %5 = tail call ptr (...) @Abc_FrameReadStore() #11
  %6 = getelementptr i8, ptr %5, i64 4
  %.val23 = load i32, ptr %6, align 4
  %7 = icmp eq i32 %.val23, 0
  br i1 %7, label %8, label %9

8:                                                ; preds = %3
  %puts = tail call i32 @puts(ptr nonnull dereferenceable(1) @str.8)
  br label %61

9:                                                ; preds = %3
  %10 = getelementptr i8, ptr %5, i64 8
  %.val25 = load ptr, ptr %10, align 8
  %11 = load ptr, ptr %.val25, align 8
  %12 = icmp sgt i32 %.val23, 1
  br i1 %12, label %13, label %31

13:                                               ; preds = %9
  %14 = add nsw i32 %.val23, -1
  store i32 %14, ptr %6, align 4
  %15 = zext nneg i32 %14 to i64
  %16 = getelementptr inbounds nuw ptr, ptr %.val25, i64 %15
  %17 = load ptr, ptr %16, align 8
  %18 = load ptr, ptr %.val25, align 8
  %19 = load i32, ptr %5, align 8
  %20 = icmp eq i32 %14, %19
  br i1 %20, label %Vec_PtrPush.exit.sink.split, label %Vec_PtrPush.exit

Vec_PtrPush.exit.sink.split:                      ; preds = %13
  %21 = icmp samesign ult i32 %.val23, 17
  %22 = shl nuw nsw i32 %14, 1
  %23 = zext nneg i32 %22 to i64
  %24 = shl nuw nsw i64 %23, 3
  %.sink29 = select i1 %21, i64 128, i64 %24
  %.sink = select i1 %21, i32 16, i32 %22
  %25 = tail call ptr @realloc(ptr noundef nonnull %.val25, i64 noundef %.sink29) #14
  store ptr %25, ptr %10, align 8
  store i32 %.sink, ptr %5, align 8
  br label %Vec_PtrPush.exit

Vec_PtrPush.exit:                                 ; preds = %Vec_PtrPush.exit.sink.split, %13
  %26 = phi ptr [ %.val25, %13 ], [ %25, %Vec_PtrPush.exit.sink.split ]
  %27 = load i32, ptr %6, align 4
  %28 = add nsw i32 %27, 1
  store i32 %28, ptr %6, align 4
  %29 = sext i32 %27 to i64
  %30 = getelementptr inbounds ptr, ptr %26, i64 %29
  store ptr %18, ptr %30, align 8
  %.val26 = load ptr, ptr %10, align 8
  store ptr %17, ptr %.val26, align 8
  br label %31

31:                                               ; preds = %Vec_PtrPush.exit, %9
  %.021 = phi ptr [ %17, %Vec_PtrPush.exit ], [ %11, %9 ]
  %32 = getelementptr i8, ptr %.021, i64 124
  %.021.val27 = load i32, ptr %32, align 4
  %33 = getelementptr i8, ptr %.021, i64 56
  %.021.val = load ptr, ptr %33, align 8
  %34 = getelementptr i8, ptr %.021.val, i64 4
  %.021.val.val = load i32, ptr %34, align 4
  %35 = add nsw i32 %.021.val.val, %.021.val27
  %36 = sdiv i32 134217728, %35
  %37 = tail call range(i32 -134217728, 33) i32 @llvm.smin.i32(i32 range(i32 -134217728, 134217729) %36, i32 32)
  call void @Fraig_ParamsSetDefault(ptr noundef nonnull %4) #11
  %.not = icmp eq i32 %0, 0
  %38 = shl nsw i32 %37, 5
  %39 = select i1 %.not, i32 %38, i32 %0
  store i32 %39, ptr %4, align 8
  %.not22 = icmp eq i32 %1, 0
  %40 = select i1 %.not22, i32 %38, i32 %1
  %41 = getelementptr inbounds nuw i8, ptr %4, i64 4
  store i32 %40, ptr %41, align 4
  %42 = getelementptr inbounds nuw i8, ptr %4, i64 8
  store i32 %2, ptr %42, align 8
  %43 = getelementptr inbounds nuw i8, ptr %4, i64 16
  store i32 1, ptr %43, align 8
  %44 = getelementptr inbounds nuw i8, ptr %4, i64 20
  store i32 1, ptr %44, align 4
  %45 = getelementptr inbounds nuw i8, ptr %4, i64 24
  store i32 1, ptr %45, align 8
  %46 = getelementptr inbounds nuw i8, ptr %4, i64 28
  store i32 1, ptr %46, align 4
  %47 = getelementptr inbounds nuw i8, ptr %4, i64 32
  store i32 1, ptr %47, align 8
  %48 = getelementptr inbounds nuw i8, ptr %4, i64 36
  store i32 0, ptr %48, align 4
  %49 = getelementptr inbounds nuw i8, ptr %4, i64 48
  store i32 1, ptr %49, align 8
  %50 = getelementptr inbounds nuw i8, ptr %4, i64 40
  store i32 0, ptr %50, align 8
  %51 = call ptr @Abc_NtkFraigPartitioned(ptr noundef nonnull %5, ptr noundef nonnull %4) #11
  %52 = call ptr (...) @Abc_FrameReadStore() #11
  %53 = getelementptr i8, ptr %52, i64 4
  %.val7.i = load i32, ptr %53, align 4
  %54 = icmp sgt i32 %.val7.i, 0
  br i1 %54, label %.lr.ph.i, label %Abc_NtkFraigStoreClean.exit

.lr.ph.i:                                         ; preds = %31
  %55 = getelementptr i8, ptr %52, i64 8
  br label %56

56:                                               ; preds = %56, %.lr.ph.i
  %indvars.iv.i = phi i64 [ 0, %.lr.ph.i ], [ %indvars.iv.next.i, %56 ]
  %.val6.i = load ptr, ptr %55, align 8
  %57 = getelementptr inbounds nuw ptr, ptr %.val6.i, i64 %indvars.iv.i
  %58 = load ptr, ptr %57, align 8
  call void @Abc_NtkDelete(ptr noundef %58) #11
  %indvars.iv.next.i = add nuw nsw i64 %indvars.iv.i, 1
  %.val.i = load i32, ptr %53, align 4
  %59 = sext i32 %.val.i to i64
  %60 = icmp slt i64 %indvars.iv.next.i, %59
  br i1 %60, label %56, label %Abc_NtkFraigStoreClean.exit, !llvm.loop !30

Abc_NtkFraigStoreClean.exit:                      ; preds = %56, %31
  store i32 0, ptr %53, align 4
  br label %61

61:                                               ; preds = %Abc_NtkFraigStoreClean.exit, %8
  %.0 = phi ptr [ null, %8 ], [ %51, %Abc_NtkFraigStoreClean.exit ]
  ret ptr %.0
}